; Function Attrs: nounwind uwtable
define ptr @l_Int_Linear_Poly_denote(ptr noundef %0, ptr noundef %1) local_unnamed_addr #1 {
  %3 = ptrtoint ptr %1 to i64
  %4 = and i64 %3, 1
  %.not.i26 = icmp eq i64 %4, 0
  br i1 %.not.i26, label %8, label %5

5:                                                ; preds = %2
  %6 = lshr i64 %3, 1
  %7 = trunc i64 %6 to i32
  br label %lean_obj_tag.exit

8:                                                ; preds = %2
  %9 = getelementptr i8, ptr %1, i64 4
  %.val.i = load i32, ptr %9, align 4
  %10 = lshr i32 %.val.i, 24
  br label %lean_obj_tag.exit

lean_obj_tag.exit:                                ; preds = %5, %8
  %.0.i = phi i32 [ %7, %5 ], [ %10, %8 ]
  %11 = icmp eq i32 %.0.i, 0
  %12 = getelementptr inbounds nuw i8, ptr %1, i64 8
  %13 = load ptr, ptr %12, align 8, !tbaa !11
  br i1 %11, label %14, label %23

14:                                               ; preds = %lean_obj_tag.exit
  %15 = ptrtoint ptr %13 to i64
  %16 = and i64 %15, 1
  %.not37 = icmp eq i64 %16, 0
  br i1 %.not37, label %17, label %lean_inc.exit

17:                                               ; preds = %14
  %.val.i27 = load i32, ptr %13, align 4, !tbaa !6
  %18 = icmp sgt i32 %.val.i27, 0
  br i1 %18, label %19, label %21, !prof !5

19:                                               ; preds = %17
  %20 = add nuw i32 %.val.i27, 1
  store i32 %20, ptr %13, align 4, !tbaa !6
  br label %lean_inc.exit

21:                                               ; preds = %17
  %.not.i28 = icmp eq i32 %.val.i27, 0
  br i1 %.not.i28, label %lean_inc.exit, label %22

22:                                               ; preds = %21
  tail call void @lean_inc_ref_cold(ptr noundef nonnull %13) #5
  br label %lean_inc.exit

23:                                               ; preds = %lean_obj_tag.exit
  %24 = getelementptr inbounds nuw i8, ptr %1, i64 16
  %25 = load ptr, ptr %24, align 8, !tbaa !11
  %26 = getelementptr inbounds nuw i8, ptr %1, i64 24
  %27 = load ptr, ptr %26, align 8, !tbaa !11
  %28 = tail call ptr @l_Lean_RArray_getImpl___rarg(ptr noundef %0, ptr noundef %25) #5
  %29 = ptrtoint ptr %13 to i64
  %30 = and i64 %29, 1
  %.not.i29 = icmp eq i64 %30, 0
  %.pre44 = ptrtoint ptr %28 to i64
  %.pre = and i64 %.pre44, 1
  %31 = icmp eq i64 %.pre, 0
  br i1 %.not.i29, label %lean_int_mul.exit, label %32, !prof !4

32:                                               ; preds = %23
  br i1 %31, label %lean_int_mul.exit.thread50, label %34, !prof !4

lean_int_mul.exit.thread50:                       ; preds = %32
  %33 = tail call ptr @lean_int_big_mul(ptr noundef %13, ptr noundef %28) #5
  br label %50

34:                                               ; preds = %32
  %35 = shl i64 %29, 31
  %36 = ashr i64 %35, 32
  %37 = shl i64 %.pre44, 31
  %38 = ashr i64 %37, 32
  %39 = mul nsw i64 %38, %36
  %40 = add nsw i64 %39, 2147483648
  %41 = icmp ult i64 %40, 4294967296
  br i1 %41, label %42, label %47, !prof !5

42:                                               ; preds = %34
  %43 = shl nsw i64 %39, 1
  %44 = and i64 %43, 8589934590
  %45 = or disjoint i64 %44, 1
  %46 = inttoptr i64 %45 to ptr
  br label %lean_dec.exit21

47:                                               ; preds = %34
  %48 = tail call ptr @lean_big_int64_to_int(i64 noundef range(i64 -4611686016279904256, 4611686018427387905) %39) #5
  br label %lean_dec.exit21

lean_int_mul.exit:                                ; preds = %23
  %49 = tail call ptr @lean_int_big_mul(ptr noundef %13, ptr noundef %28) #5
  br i1 %31, label %50, label %lean_dec.exit21

50:                                               ; preds = %lean_int_mul.exit.thread50, %lean_int_mul.exit
  %51 = phi ptr [ %33, %lean_int_mul.exit.thread50 ], [ %49, %lean_int_mul.exit ]
  %52 = load i32, ptr %28, align 4, !tbaa !6
  %53 = icmp sgt i32 %52, 1
  br i1 %53, label %54, label %56, !prof !5

54:                                               ; preds = %50
  %55 = add nsw i32 %52, -1
  store i32 %55, ptr %28, align 4, !tbaa !6
  br label %lean_dec.exit21

56:                                               ; preds = %50
  %.not.i = icmp eq i32 %52, 0
  br i1 %.not.i, label %lean_dec.exit21, label %57

57:                                               ; preds = %56
  tail call void @lean_dec_ref_cold(ptr noundef nonnull %28) #5
  br label %lean_dec.exit21

lean_dec.exit21:                                  ; preds = %47, %42, %57, %56, %54, %lean_int_mul.exit
  %.0.i3049 = phi ptr [ %51, %57 ], [ %51, %56 ], [ %51, %54 ], [ %49, %lean_int_mul.exit ], [ %48, %47 ], [ %46, %42 ]
  %58 = tail call ptr @l_Int_Linear_Poly_denote(ptr noundef %0, ptr noundef %27)
  %59 = ptrtoint ptr %.0.i3049 to i64
  %60 = and i64 %59, 1
  %.not.i31 = icmp eq i64 %60, 0
  %.pre45 = ptrtoint ptr %58 to i64
  %.pre46 = and i64 %.pre45, 1
  %61 = icmp eq i64 %.pre46, 0
  br i1 %.not.i31, label %lean_int_add.exit, label %62, !prof !4

62:                                               ; preds = %lean_dec.exit21
  br i1 %61, label %lean_int_add.exit.thread55, label %64, !prof !4

lean_int_add.exit.thread55:                       ; preds = %62
  %63 = tail call ptr @lean_int_big_add(ptr noundef %.0.i3049, ptr noundef %58) #5
  br label %80

64:                                               ; preds = %62
  %65 = shl i64 %59, 31
  %66 = ashr i64 %65, 32
  %67 = shl i64 %.pre45, 31
  %68 = ashr i64 %67, 32
  %69 = add nsw i64 %68, %66
  %70 = add nsw i64 %69, 2147483648
  %71 = icmp ult i64 %70, 4294967296
  br i1 %71, label %72, label %77, !prof !5

72:                                               ; preds = %64
  %73 = shl nsw i64 %69, 1
  %74 = and i64 %73, 8589934590
  %75 = or disjoint i64 %74, 1
  %76 = inttoptr i64 %75 to ptr
  br label %lean_inc.exit

77:                                               ; preds = %64
  %78 = tail call ptr @lean_big_int64_to_int(i64 noundef range(i64 -4611686016279904256, 4611686018427387905) %69) #5
  br label %lean_inc.exit

lean_int_add.exit:                                ; preds = %lean_dec.exit21
  %79 = tail call ptr @lean_int_big_add(ptr noundef %.0.i3049, ptr noundef %58) #5
  br i1 %61, label %80, label %lean_dec.exit20.thread

80:                                               ; preds = %lean_int_add.exit.thread55, %lean_int_add.exit
  %81 = phi ptr [ %63, %lean_int_add.exit.thread55 ], [ %79, %lean_int_add.exit ]
  %82 = load i32, ptr %58, align 4, !tbaa !6
  %83 = icmp sgt i32 %82, 1
  br i1 %83, label %84, label %86, !prof !5

84:                                               ; preds = %80
  %85 = add nsw i32 %82, -1
  store i32 %85, ptr %58, align 4, !tbaa !6
  br label %lean_dec.exit20

86:                                               ; preds = %80
  %.not.i22 = icmp eq i32 %82, 0
  br i1 %.not.i22, label %lean_dec.exit20, label %87

87:                                               ; preds = %86
  tail call void @lean_dec_ref_cold(ptr noundef nonnull %58) #5
  br label %lean_dec.exit20

lean_dec.exit20:                                  ; preds = %87, %86, %84
  br i1 %.not.i31, label %lean_dec.exit20.thread, label %lean_inc.exit

lean_dec.exit20.thread:                           ; preds = %lean_int_add.exit, %lean_dec.exit20
  %.0.i335458 = phi ptr [ %81, %lean_dec.exit20 ], [ %79, %lean_int_add.exit ]
  %88 = load i32, ptr %.0.i3049, align 4, !tbaa !6
  %89 = icmp sgt i32 %88, 1
  br i1 %89, label %90, label %92, !prof !5

90:                                               ; preds = %lean_dec.exit20.thread
  %91 = add nsw i32 %88, -1
  store i32 %91, ptr %.0.i3049, align 4, !tbaa !6
  br label %lean_inc.exit

92:                                               ; preds = %lean_dec.exit20.thread
  %.not.i24 = icmp eq i32 %88, 0
  br i1 %.not.i24, label %lean_inc.exit, label %93

93:                                               ; preds = %92
  tail call void @lean_dec_ref_cold(ptr noundef nonnull %.0.i3049) #5
  br label %lean_inc.exit

lean_inc.exit:                                    ; preds = %72, %77, %lean_dec.exit20, %90, %92, %93, %14, %19, %21, %22
  %.0 = phi ptr [ %13, %22 ], [ %13, %21 ], [ %13, %19 ], [ %13, %14 ], [ %.0.i335458, %93 ], [ %.0.i335458, %92 ], [ %.0.i335458, %90 ], [ %81, %lean_dec.exit20 ], [ %78, %77 ], [ %76, %72 ]
  ret ptr %.0
}